target datalayout = "e-m:e-p270:32:32-p271:32:32-p272:64:64-i64:64-i128:128-f80:128-n8:16:32:64-S128"
target triple = "x86_64-pc-linux-gnu"

@tx_size_wide = internal constant [19 x i32] [i32 4, i32 8, i32 16, i32 32, i32 64, i32 4, i32 8, i32 8, i32 16, i32 16, i32 32, i32 32, i32 64, i32 4, i32 16, i32 8, i32 32, i32 16, i32 64], align 16
@tx_size_high = internal constant [19 x i32] [i32 4, i32 8, i32 16, i32 32, i32 64, i32 8, i32 4, i32 16, i32 8, i32 32, i32 16, i32 64, i32 32, i32 16, i32 4, i32 32, i32 8, i32 64, i32 16], align 16

; Function Attrs: nounwind uwtable
define internal zeroext i8 @clip_pixel(i32 noundef %0) #0 {
  %2 = alloca i32, align 4
  store i32 %0, ptr %2, align 4
  %3 = load i32, ptr %2, align 4
  %4 = icmp sgt i32 %3, 255
  br i1 %4, label %5, label %6

5:                                                ; preds = %1
  br label %14

6:                                                ; preds = %1
  %7 = load i32, ptr %2, align 4
  %8 = icmp slt i32 %7, 0
  br i1 %8, label %9, label %10

9:                                                ; preds = %6
  br label %12

10:                                               ; preds = %6
  %11 = load i32, ptr %2, align 4
  br label %12

12:                                               ; preds = %10, %9
  %13 = phi i32 [ 0, %9 ], [ %11, %10 ]
  br label %14

14:                                               ; preds = %12, %5
  %15 = phi i32 [ 255, %5 ], [ %13, %12 ]
  %16 = trunc i32 %15 to i8
  ret i8 %16
}

; Function Attrs: nounwind uwtable
define hidden void @av1_filter_intra_predictor_c(ptr noundef %0, i64 noundef %1, i8 noundef zeroext %2, ptr noundef %3, ptr noundef %4, i32 noundef %5) #0 {
  %7 = alloca ptr, align 8
  %8 = alloca i64, align 8
  %9 = alloca i8, align 1
  %10 = alloca ptr, align 8
  %11 = alloca ptr, align 8
  %12 = alloca i32, align 4
  %13 = alloca i32, align 4
  %14 = alloca i32, align 4
  %15 = alloca [33 x [33 x i8]], align 16
  %16 = alloca i32, align 4
  %17 = alloca i32, align 4
  %18 = alloca i8, align 1
  %19 = alloca i8, align 1
  %20 = alloca i8, align 1
  %21 = alloca i8, align 1
  %22 = alloca i8, align 1
  %23 = alloca i8, align 1
  %24 = alloca i8, align 1
  %25 = alloca i32, align 4
  %26 = alloca i32, align 4
  %27 = alloca i32, align 4
  %28 = alloca i32, align 4
  store ptr %0, ptr %7, align 8
  store i64 %1, ptr %8, align 8
  store i8 %2, ptr %9, align 1
  store ptr %3, ptr %10, align 8
  store ptr %4, ptr %11, align 8
  store i32 %5, ptr %12, align 4
  %29 = load i8, ptr %9, align 1
  %30 = zext i8 %29 to i64
  %31 = getelementptr inbounds [19 x i32], ptr @tx_size_wide, i64 0, i64 %30
  %32 = load i32, ptr %31, align 4
  store i32 %32, ptr %16, align 4
  %33 = load i8, ptr %9, align 1
  %34 = zext i8 %33 to i64
  %35 = getelementptr inbounds [19 x i32], ptr @tx_size_high, i64 0, i64 %34
  %36 = load i32, ptr %35, align 4
  store i32 %36, ptr %17, align 4
  store i32 0, ptr %13, align 4
  br label %37

37:                                               ; preds = %52, %6
  %38 = load i32, ptr %13, align 4
  %39 = load i32, ptr %17, align 4
  %40 = icmp slt i32 %38, %39
  br i1 %40, label %41, label %55

41:                                               ; preds = %37
  %42 = load ptr, ptr %11, align 8
  %43 = load i32, ptr %13, align 4
  %44 = sext i32 %43 to i64
  %45 = getelementptr inbounds i8, ptr %42, i64 %44
  %46 = load i8, ptr %45, align 1
  %47 = load i32, ptr %13, align 4
  %48 = add nsw i32 %47, 1
  %49 = sext i32 %48 to i64
  %50 = getelementptr inbounds [33 x [33 x i8]], ptr %15, i64 0, i64 %49
  %51 = getelementptr inbounds [33 x i8], ptr %50, i64 0, i64 0
  store i8 %46, ptr %51, align 1
  br label %52

52:                                               ; preds = %41
  %53 = load i32, ptr %13, align 4
  %54 = add nsw i32 %53, 1
  store i32 %54, ptr %13, align 4
  br label %37, !llvm.loop !21

55:                                               ; preds = %37
  %56 = getelementptr inbounds [33 x [33 x i8]], ptr %15, i64 0, i64 0
  %57 = getelementptr inbounds [33 x i8], ptr %56, i64 0, i64 0
  %58 = load ptr, ptr %10, align 8
  %59 = getelementptr inbounds i8, ptr %58, i64 -1
  %60 = load i32, ptr %16, align 4
  %61 = add nsw i32 %60, 1
  %62 = sext i32 %61 to i64
  %63 = mul i64 %62, 1
  call void @llvm.memcpy.p0.p0.i64(ptr align 16 %57, ptr align 1 %59, i64 %63, i1 false)
  store i32 1, ptr %13, align 4
  br label %64

64:                                               ; preds = %257, %55
  %65 = load i32, ptr %13, align 4
  %66 = load i32, ptr %17, align 4
  %67 = add nsw i32 %66, 1
  %68 = icmp slt i32 %65, %67
  br i1 %68, label %69, label %260

69:                                               ; preds = %64
  store i32 1, ptr %14, align 4
  br label %70

70:                                               ; preds = %253, %69
  %71 = load i32, ptr %14, align 4
  %72 = load i32, ptr %16, align 4
  %73 = add nsw i32 %72, 1
  %74 = icmp slt i32 %71, %73
  br i1 %74, label %75, label %256

75:                                               ; preds = %70
  %76 = load i32, ptr %13, align 4
  %77 = sub nsw i32 %76, 1
  %78 = sext i32 %77 to i64
  %79 = getelementptr inbounds [33 x [33 x i8]], ptr %15, i64 0, i64 %78
  %80 = load i32, ptr %14, align 4
  %81 = sub nsw i32 %80, 1
  %82 = sext i32 %81 to i64
  %83 = getelementptr inbounds [33 x i8], ptr %79, i64 0, i64 %82
  %84 = load i8, ptr %83, align 1
  store i8 %84, ptr %18, align 1
  %85 = load i32, ptr %13, align 4
  %86 = sub nsw i32 %85, 1
  %87 = sext i32 %86 to i64
  %88 = getelementptr inbounds [33 x [33 x i8]], ptr %15, i64 0, i64 %87
  %89 = load i32, ptr %14, align 4
  %90 = sext i32 %89 to i64
  %91 = getelementptr inbounds [33 x i8], ptr %88, i64 0, i64 %90
  %92 = load i8, ptr %91, align 1
  store i8 %92, ptr %19, align 1
  %93 = load i32, ptr %13, align 4
  %94 = sub nsw i32 %93, 1
  %95 = sext i32 %94 to i64
  %96 = getelementptr inbounds [33 x [33 x i8]], ptr %15, i64 0, i64 %95
  %97 = load i32, ptr %14, align 4
  %98 = add nsw i32 %97, 1
  %99 = sext i32 %98 to i64
  %100 = getelementptr inbounds [33 x i8], ptr %96, i64 0, i64 %99
  %101 = load i8, ptr %100, align 1
  store i8 %101, ptr %20, align 1
  %102 = load i32, ptr %13, align 4
  %103 = sub nsw i32 %102, 1
  %104 = sext i32 %103 to i64
  %105 = getelementptr inbounds [33 x [33 x i8]], ptr %15, i64 0, i64 %104
  %106 = load i32, ptr %14, align 4
  %107 = add nsw i32 %106, 2
  %108 = sext i32 %107 to i64
  %109 = getelementptr inbounds [33 x i8], ptr %105, i64 0, i64 %108
  %110 = load i8, ptr %109, align 1
  store i8 %110, ptr %21, align 1
  %111 = load i32, ptr %13, align 4
  %112 = sub nsw i32 %111, 1
  %113 = sext i32 %112 to i64
  %114 = getelementptr inbounds [33 x [33 x i8]], ptr %15, i64 0, i64 %113
  %115 = load i32, ptr %14, align 4
  %116 = add nsw i32 %115, 3
  %117 = sext i32 %116 to i64
  %118 = getelementptr inbounds [33 x i8], ptr %114, i64 0, i64 %117
  %119 = load i8, ptr %118, align 1
  store i8 %119, ptr %22, align 1
  %120 = load i32, ptr %13, align 4
  %121 = sext i32 %120 to i64
  %122 = getelementptr inbounds [33 x [33 x i8]], ptr %15, i64 0, i64 %121
  %123 = load i32, ptr %14, align 4
  %124 = sub nsw i32 %123, 1
  %125 = sext i32 %124 to i64
  %126 = getelementptr inbounds [33 x i8], ptr %122, i64 0, i64 %125
  %127 = load i8, ptr %126, align 1
  store i8 %127, ptr %23, align 1
  %128 = load i32, ptr %13, align 4
  %129 = add nsw i32 %128, 1
  %130 = sext i32 %129 to i64
  %131 = getelementptr inbounds [33 x [33 x i8]], ptr %15, i64 0, i64 %130
  %132 = load i32, ptr %14, align 4
  %133 = sub nsw i32 %132, 1
  %134 = sext i32 %133 to i64
  %135 = getelementptr inbounds [33 x i8], ptr %131, i64 0, i64 %134
  %136 = load i8, ptr %135, align 1
  store i8 %136, ptr %24, align 1
  store i32 0, ptr %25, align 4
  br label %137

137:                                              ; preds = %249, %75
  %138 = load i32, ptr %25, align 4
  %139 = icmp slt i32 %138, 8
  br i1 %139, label %140, label %252

140:                                              ; preds = %137
  %141 = load i32, ptr %25, align 4
  %142 = ashr i32 %141, 2
  store i32 %142, ptr %26, align 4
  %143 = load i32, ptr %25, align 4
  %144 = and i32 %143, 3
  store i32 %144, ptr %27, align 4
  %145 = load i32, ptr %12, align 4
  %146 = sext i32 %145 to i64
  %147 = getelementptr inbounds [5 x [8 x [8 x i8]]], ptr @av1_filter_intra_taps, i64 0, i64 %146
  %148 = load i32, ptr %25, align 4
  %149 = sext i32 %148 to i64
  %150 = getelementptr inbounds [8 x [8 x i8]], ptr %147, i64 0, i64 %149
  %151 = getelementptr inbounds [8 x i8], ptr %150, i64 0, i64 0
  %152 = load i8, ptr %151, align 8
  %153 = sext i8 %152 to i32
  %154 = load i8, ptr %18, align 1
  %155 = zext i8 %154 to i32
  %156 = mul nsw i32 %153, %155
  %157 = load i32, ptr %12, align 4
  %158 = sext i32 %157 to i64
  %159 = getelementptr inbounds [5 x [8 x [8 x i8]]], ptr @av1_filter_intra_taps, i64 0, i64 %158
  %160 = load i32, ptr %25, align 4
  %161 = sext i32 %160 to i64
  %162 = getelementptr inbounds [8 x [8 x i8]], ptr %159, i64 0, i64 %161
  %163 = getelementptr inbounds [8 x i8], ptr %162, i64 0, i64 1
  %164 = load i8, ptr %163, align 1
  %165 = sext i8 %164 to i32
  %166 = load i8, ptr %19, align 1
  %167 = zext i8 %166 to i32
  %168 = mul nsw i32 %165, %167
  %169 = add nsw i32 %156, %168
  %170 = load i32, ptr %12, align 4
  %171 = sext i32 %170 to i64
  %172 = getelementptr inbounds [5 x [8 x [8 x i8]]], ptr @av1_filter_intra_taps, i64 0, i64 %171
  %173 = load i32, ptr %25, align 4
  %174 = sext i32 %173 to i64
  %175 = getelementptr inbounds [8 x [8 x i8]], ptr %172, i64 0, i64 %174
  %176 = getelementptr inbounds [8 x i8], ptr %175, i64 0, i64 2
  %177 = load i8, ptr %176, align 2
  %178 = sext i8 %177 to i32
  %179 = load i8, ptr %20, align 1
  %180 = zext i8 %179 to i32
  %181 = mul nsw i32 %178, %180
  %182 = add nsw i32 %169, %181
  %183 = load i32, ptr %12, align 4
  %184 = sext i32 %183 to i64
  %185 = getelementptr inbounds [5 x [8 x [8 x i8]]], ptr @av1_filter_intra_taps, i64 0, i64 %184
  %186 = load i32, ptr %25, align 4
  %187 = sext i32 %186 to i64
  %188 = getelementptr inbounds [8 x [8 x i8]], ptr %185, i64 0, i64 %187
  %189 = getelementptr inbounds [8 x i8], ptr %188, i64 0, i64 3
  %190 = load i8, ptr %189, align 1
  %191 = sext i8 %190 to i32
  %192 = load i8, ptr %21, align 1
  %193 = zext i8 %192 to i32
  %194 = mul nsw i32 %191, %193
  %195 = add nsw i32 %182, %194
  %196 = load i32, ptr %12, align 4
  %197 = sext i32 %196 to i64
  %198 = getelementptr inbounds [5 x [8 x [8 x i8]]], ptr @av1_filter_intra_taps, i64 0, i64 %197
  %199 = load i32, ptr %25, align 4
  %200 = sext i32 %199 to i64
  %201 = getelementptr inbounds [8 x [8 x i8]], ptr %198, i64 0, i64 %200
  %202 = getelementptr inbounds [8 x i8], ptr %201, i64 0, i64 4
  %203 = load i8, ptr %202, align 4
  %204 = sext i8 %203 to i32
  %205 = load i8, ptr %22, align 1
  %206 = zext i8 %205 to i32
  %207 = mul nsw i32 %204, %206
  %208 = add nsw i32 %195, %207
  %209 = load i32, ptr %12, align 4
  %210 = sext i32 %209 to i64
  %211 = getelementptr inbounds [5 x [8 x [8 x i8]]], ptr @av1_filter_intra_taps, i64 0, i64 %210
  %212 = load i32, ptr %25, align 4
  %213 = sext i32 %212 to i64
  %214 = getelementptr inbounds [8 x [8 x i8]], ptr %211, i64 0, i64 %213
  %215 = getelementptr inbounds [8 x i8], ptr %214, i64 0, i64 5
  %216 = load i8, ptr %215, align 1
  %217 = sext i8 %216 to i32
  %218 = load i8, ptr %23, align 1
  %219 = zext i8 %218 to i32
  %220 = mul nsw i32 %217, %219
  %221 = add nsw i32 %208, %220
  %222 = load i32, ptr %12, align 4
  %223 = sext i32 %222 to i64
  %224 = getelementptr inbounds [5 x [8 x [8 x i8]]], ptr @av1_filter_intra_taps, i64 0, i64 %223
  %225 = load i32, ptr %25, align 4
  %226 = sext i32 %225 to i64
  %227 = getelementptr inbounds [8 x [8 x i8]], ptr %224, i64 0, i64 %226
  %228 = getelementptr inbounds [8 x i8], ptr %227, i64 0, i64 6
  %229 = load i8, ptr %228, align 2
  %230 = sext i8 %229 to i32
  %231 = load i8, ptr %24, align 1
  %232 = zext i8 %231 to i32
  %233 = mul nsw i32 %230, %232
  %234 = add nsw i32 %221, %233
  store i32 %234, ptr %28, align 4
  %235 = load i32, ptr %28, align 4
  %236 = add nsw i32 %235, 8
  %237 = ashr i32 %236, 4
  %238 = call zeroext i8 @clip_pixel(i32 noundef %237)
  %239 = load i32, ptr %13, align 4
  %240 = load i32, ptr %26, align 4
  %241 = add nsw i32 %239, %240
  %242 = sext i32 %241 to i64
  %243 = getelementptr inbounds [33 x [33 x i8]], ptr %15, i64 0, i64 %242
  %244 = load i32, ptr %14, align 4
  %245 = load i32, ptr %27, align 4
  %246 = add nsw i32 %244, %245
  %247 = sext i32 %246 to i64
  %248 = getelementptr inbounds [33 x i8], ptr %243, i64 0, i64 %247
  store i8 %238, ptr %248, align 1
  br label %249

249:                                              ; preds = %140
  %250 = load i32, ptr %25, align 4
  %251 = add nsw i32 %250, 1
  store i32 %251, ptr %25, align 4
  br label %137, !llvm.loop !22

252:                                              ; preds = %137
  br label %253

253:                                              ; preds = %252
  %254 = load i32, ptr %14, align 4
  %255 = add nsw i32 %254, 4
  store i32 %255, ptr %14, align 4
  br label %70, !llvm.loop !23

256:                                              ; preds = %70
  br label %257

257:                                              ; preds = %256
  %258 = load i32, ptr %13, align 4
  %259 = add nsw i32 %258, 2
  store i32 %259, ptr %13, align 4
  br label %64, !llvm.loop !24

260:                                              ; preds = %64
  store i32 0, ptr %13, align 4
  br label %261

261:                                              ; preds = %278, %260
  %262 = load i32, ptr %13, align 4
  %263 = load i32, ptr %17, align 4
  %264 = icmp slt i32 %262, %263
  br i1 %264, label %265, label %281

265:                                              ; preds = %261
  %266 = load ptr, ptr %7, align 8
  %267 = load i32, ptr %13, align 4
  %268 = add nsw i32 %267, 1
  %269 = sext i32 %268 to i64
  %270 = getelementptr inbounds [33 x [33 x i8]], ptr %15, i64 0, i64 %269
  %271 = getelementptr inbounds [33 x i8], ptr %270, i64 0, i64 1
  %272 = load i32, ptr %16, align 4
  %273 = sext i32 %272 to i64
  %274 = mul i64 %273, 1
  call void @llvm.memcpy.p0.p0.i64(ptr align 1 %266, ptr align 1 %271, i64 %274, i1 false)
  %275 = load i64, ptr %8, align 8
  %276 = load ptr, ptr %7, align 8
  %277 = getelementptr inbounds i8, ptr %276, i64 %275
  store ptr %277, ptr %7, align 8
  br label %278

278:                                              ; preds = %265
  %279 = load i32, ptr %13, align 4
  %280 = add nsw i32 %279, 1
  store i32 %280, ptr %13, align 4
  br label %261, !llvm.loop !25

281:                                              ; preds = %261
  ret void
}