; Function Attrs: nofree norecurse nosync nounwind memory(argmem: readwrite) uwtable
define hidden void @av1_filter_intra_predictor_c(ptr nocapture noundef writeonly %0, i64 noundef %1, i8 noundef zeroext %2, ptr nocapture noundef readonly %3, ptr nocapture noundef readonly %4, i32 noundef %5) local_unnamed_addr #0 {
.lr.ph.preheader:
  %6 = alloca [33 x [33 x i8]], align 16
  %7 = zext i8 %2 to i64
  %8 = getelementptr inbounds [19 x i32], ptr @tx_size_wide, i64 0, i64 %7
  %9 = load i32, ptr %8, align 4
  %10 = getelementptr inbounds [19 x i32], ptr @tx_size_high, i64 0, i64 %7
  %11 = load i32, ptr %10, align 4
  %smax = tail call i32 @llvm.smax.i32(i32 %11, i32 1)
  %wide.trip.count = zext nneg i32 %smax to i64
  br label %.lr.ph

.lr.ph:                                           ; preds = %.lr.ph.preheader, %.lr.ph
  %indvars.iv = phi i64 [ 0, %.lr.ph.preheader ], [ %indvars.iv.next, %.lr.ph ]
  %12 = getelementptr inbounds i8, ptr %4, i64 %indvars.iv
  %13 = load i8, ptr %12, align 1
  %indvars.iv.next = add nuw nsw i64 %indvars.iv, 1
  %14 = getelementptr inbounds [33 x [33 x i8]], ptr %6, i64 0, i64 %indvars.iv.next
  store i8 %13, ptr %14, align 1
  %exitcond.not = icmp eq i64 %indvars.iv.next, %wide.trip.count
  br i1 %exitcond.not, label %.preheader72.preheader, label %.lr.ph, !llvm.loop !21

.preheader72.preheader:                           ; preds = %.lr.ph
  %15 = getelementptr inbounds i8, ptr %3, i64 -1
  %16 = add nsw i32 %9, 1
  %17 = sext i32 %16 to i64
  call void @llvm.memcpy.p0.p0.i64(ptr nonnull align 16 %6, ptr nonnull align 1 %15, i64 %17, i1 false)
  %18 = sext i32 %5 to i64
  %19 = sext i32 %9 to i64
  %20 = sext i32 %11 to i64
  br label %.preheader72

.preheader72:                                     ; preds = %.preheader72.preheader, %._crit_edge78
  %indvars.iv94 = phi i64 [ 1, %.preheader72.preheader ], [ %indvars.iv.next95, %._crit_edge78 ]
  %21 = add nsw i64 %indvars.iv94, -1
  %22 = add nuw nsw i64 %indvars.iv94, 1
  %23 = trunc nuw nsw i64 %indvars.iv94 to i32
  br label %25

.lr.ph83:                                         ; preds = %._crit_edge78
  %24 = sext i32 %9 to i64
  %smax100 = tail call i32 @llvm.smax.i32(i32 %11, i32 1)
  %wide.trip.count101 = zext nneg i32 %smax100 to i64
  br label %100

25:                                               ; preds = %.preheader72, %99
  %indvars.iv91 = phi i64 [ 1, %.preheader72 ], [ %indvars.iv.next92, %99 ]
  %26 = add nsw i64 %indvars.iv91, -1
  %27 = getelementptr inbounds [33 x [33 x i8]], ptr %6, i64 0, i64 %21, i64 %26
  %28 = load i8, ptr %27, align 1
  %29 = getelementptr inbounds [33 x [33 x i8]], ptr %6, i64 0, i64 %21, i64 %indvars.iv91
  %30 = load i8, ptr %29, align 1
  %31 = add nuw nsw i64 %indvars.iv91, 1
  %32 = getelementptr inbounds [33 x [33 x i8]], ptr %6, i64 0, i64 %21, i64 %31
  %33 = load i8, ptr %32, align 1
  %34 = add nuw nsw i64 %indvars.iv91, 2
  %35 = getelementptr inbounds [33 x [33 x i8]], ptr %6, i64 0, i64 %21, i64 %34
  %36 = load i8, ptr %35, align 1
  %37 = add nuw nsw i64 %indvars.iv91, 3
  %38 = getelementptr inbounds [33 x [33 x i8]], ptr %6, i64 0, i64 %21, i64 %37
  %39 = load i8, ptr %38, align 1
  %40 = getelementptr inbounds [33 x [33 x i8]], ptr %6, i64 0, i64 %indvars.iv94, i64 %26
  %41 = load i8, ptr %40, align 1
  %42 = getelementptr inbounds [33 x [33 x i8]], ptr %6, i64 0, i64 %22, i64 %26
  %43 = load i8, ptr %42, align 1
  %44 = zext i8 %28 to i32
  %45 = zext i8 %30 to i32
  %46 = zext i8 %33 to i32
  %47 = zext i8 %36 to i32
  %48 = zext i8 %39 to i32
  %49 = zext i8 %41 to i32
  %50 = zext i8 %43 to i32
  br label %51

51:                                               ; preds = %25, %51
  %indvars.iv87 = phi i64 [ 0, %25 ], [ %indvars.iv.next88, %51 ]
  %52 = trunc nuw nsw i64 %indvars.iv87 to i32
  %53 = lshr i32 %52, 2
  %54 = and i64 %indvars.iv87, 3
  %55 = getelementptr inbounds [5 x [8 x [8 x i8]]], ptr @av1_filter_intra_taps, i64 0, i64 %18, i64 %indvars.iv87
  %56 = load i8, ptr %55, align 8
  %57 = sext i8 %56 to i32
  %58 = mul nsw i32 %57, %44
  %59 = getelementptr inbounds i8, ptr %55, i64 1
  %60 = load i8, ptr %59, align 1
  %61 = sext i8 %60 to i32
  %62 = mul nsw i32 %61, %45
  %63 = getelementptr inbounds i8, ptr %55, i64 2
  %64 = load i8, ptr %63, align 2
  %65 = sext i8 %64 to i32
  %66 = mul nsw i32 %65, %46
  %67 = getelementptr inbounds i8, ptr %55, i64 3
  %68 = load i8, ptr %67, align 1
  %69 = sext i8 %68 to i32
  %70 = mul nsw i32 %69, %47
  %71 = getelementptr inbounds i8, ptr %55, i64 4
  %72 = load i8, ptr %71, align 4
  %73 = sext i8 %72 to i32
  %74 = mul nsw i32 %73, %48
  %75 = getelementptr inbounds i8, ptr %55, i64 5
  %76 = load i8, ptr %75, align 1
  %77 = sext i8 %76 to i32
  %78 = mul nsw i32 %77, %49
  %79 = getelementptr inbounds i8, ptr %55, i64 6
  %80 = load i8, ptr %79, align 2
  %81 = sext i8 %80 to i32
  %82 = mul nsw i32 %81, %50
  %83 = add nsw i32 %58, 8
  %84 = add nsw i32 %83, %62
  %85 = add nsw i32 %84, %66
  %86 = add nsw i32 %85, %70
  %87 = add nsw i32 %86, %74
  %88 = add nsw i32 %87, %78
  %89 = add nsw i32 %88, %82
  %90 = ashr i32 %89, 4
  %91 = tail call i32 @llvm.smax.i32(i32 %90, i32 0)
  %92 = tail call i32 @llvm.umin.i32(i32 %91, i32 255)
  %93 = trunc nuw i32 %92 to i8
  %94 = add nuw nsw i32 %53, %23
  %95 = zext nneg i32 %94 to i64
  %96 = add nuw i64 %54, %indvars.iv91
  %97 = and i64 %96, 4294967295
  %98 = getelementptr inbounds [33 x [33 x i8]], ptr %6, i64 0, i64 %95, i64 %97
  store i8 %93, ptr %98, align 1
  %indvars.iv.next88 = add nuw nsw i64 %indvars.iv87, 1
  %exitcond90.not = icmp eq i64 %indvars.iv.next88, 8
  br i1 %exitcond90.not, label %99, label %51, !llvm.loop !22

99:                                               ; preds = %51
  %indvars.iv.next92 = add nuw nsw i64 %indvars.iv91, 4
  %.not71 = icmp sgt i64 %indvars.iv.next92, %19
  br i1 %.not71, label %._crit_edge78, label %25, !llvm.loop !23

._crit_edge78:                                    ; preds = %99
  %indvars.iv.next95 = add nuw nsw i64 %indvars.iv94, 2
  %.not = icmp sgt i64 %indvars.iv.next95, %20
  br i1 %.not, label %.lr.ph83, label %.preheader72, !llvm.loop !24

100:                                              ; preds = %.lr.ph83, %100
  %indvars.iv97 = phi i64 [ 0, %.lr.ph83 ], [ %indvars.iv.next98, %100 ]
  %.082 = phi ptr [ %0, %.lr.ph83 ], [ %102, %100 ]
  %indvars.iv.next98 = add nuw nsw i64 %indvars.iv97, 1
  %101 = getelementptr inbounds [33 x [33 x i8]], ptr %6, i64 0, i64 %indvars.iv.next98, i64 1
  call void @llvm.memcpy.p0.p0.i64(ptr align 1 %.082, ptr nonnull align 1 %101, i64 %24, i1 false)
  %102 = getelementptr inbounds i8, ptr %.082, i64 %1
  %exitcond102.not = icmp eq i64 %indvars.iv.next98, %wide.trip.count101
  br i1 %exitcond102.not, label %._crit_edge84, label %100, !llvm.loop !25

._crit_edge84:                                    ; preds = %100
  ret void
}